; Function Attrs: mustprogress nofree norecurse nosync nounwind memory(argmem: readwrite) uwtable
define void @_ZN10duckdb_hll17hllSparseRegHistoEPhiPiS1_(ptr noundef readonly captures(address) %0, i32 noundef %1, ptr noundef writeonly captures(address_is_null) %2, ptr noundef captures(none) %3) local_unnamed_addr #2 {
  %5 = sext i32 %1 to i64
  %6 = getelementptr inbounds i8, ptr %0, i64 %5
  %invariant.gep = getelementptr inbounds nuw i8, ptr %3, i64 4
  %7 = icmp sgt i32 %1, 0
  br i1 %7, label %.lr.ph, label %._crit_edge

.lr.ph:                                           ; preds = %4, %32
  %.036 = phi ptr [ %33, %32 ], [ %0, %4 ]
  %.03135 = phi i32 [ %.132, %32 ], [ 0, %4 ]
  %8 = load i8, ptr %.036, align 1, !tbaa !9
  %9 = zext i8 %8 to i32
  %trunc = and i8 %8, -64
  switch i8 %trunc, label %24 [
    i8 0, label %10
    i8 64, label %14
  ]

10:                                               ; preds = %.lr.ph
  %11 = add nuw nsw i32 %9, 1
  %12 = load i32, ptr %3, align 4, !tbaa !11
  %13 = add nsw i32 %12, %11
  store i32 %13, ptr %3, align 4, !tbaa !11
  br label %32

14:                                               ; preds = %.lr.ph
  %15 = shl nuw nsw i32 %9, 8
  %16 = and i32 %15, 16128
  %17 = getelementptr inbounds nuw i8, ptr %.036, i64 1
  %18 = load i8, ptr %17, align 1, !tbaa !9
  %19 = zext i8 %18 to i32
  %20 = or disjoint i32 %16, %19
  %21 = add nuw nsw i32 %20, 1
  %22 = load i32, ptr %3, align 4, !tbaa !11
  %23 = add nsw i32 %21, %22
  store i32 %23, ptr %3, align 4, !tbaa !11
  br label %32

24:                                               ; preds = %.lr.ph
  %25 = and i32 %9, 3
  %26 = add nuw nsw i32 %25, 1
  %27 = lshr i32 %9, 2
  %28 = and i32 %27, 31
  %29 = zext nneg i32 %28 to i64
  %gep = getelementptr inbounds nuw i32, ptr %invariant.gep, i64 %29
  %30 = load i32, ptr %gep, align 4, !tbaa !11
  %31 = add nsw i32 %30, %26
  store i32 %31, ptr %gep, align 4, !tbaa !11
  br label %32

32:                                               ; preds = %14, %24, %10
  %.sink = phi i64 [ 2, %14 ], [ 1, %24 ], [ 1, %10 ]
  %.pn = phi i32 [ %21, %14 ], [ %26, %24 ], [ %11, %10 ]
  %33 = getelementptr inbounds nuw i8, ptr %.036, i64 %.sink
  %.132 = add nsw i32 %.pn, %.03135
  %34 = icmp ult ptr %33, %6
  br i1 %34, label %.lr.ph, label %._crit_edge.loopexit, !llvm.loop !32

._crit_edge.loopexit:                             ; preds = %32
  %35 = icmp ne i32 %.132, 4096
  br label %._crit_edge

._crit_edge:                                      ; preds = %._crit_edge.loopexit, %4
  %.031.lcssa = phi i1 [ true, %4 ], [ %35, %._crit_edge.loopexit ]
  %36 = icmp ne ptr %2, null
  %or.cond = and i1 %36, %.031.lcssa
  br i1 %or.cond, label %37, label %38

37:                                               ; preds = %._crit_edge
  store i32 1, ptr %2, align 4, !tbaa !11
  br label %38

38:                                               ; preds = %37, %._crit_edge
  ret void
}